target datalayout = "e-m:e-p270:32:32-p271:32:32-p272:64:64-i64:64-i128:128-f80:128-n8:16:32:64-S128"
target triple = "x86_64-pc-linux-gnu"

%struct.NODE = type { ptr, ptr, ptr }
%union.QueryItem = type { %struct.QueryOperand }
%struct.QueryOperand = type { i8, i8, i8, i32, i32 }
%struct.PLAINTREE = type { ptr, i32, i32 }
%struct.TSQueryData = type { i32, i32, [0 x i8] }
%struct.anon = type { i32, [0 x i8] }

@.str = private unnamed_addr constant [79 x i8] c"text-search query contains only stop words or doesn't contain lexemes, ignored\00", align 1
@.str.1 = private unnamed_addr constant [18 x i8] c"tsquery_cleanup.c\00", align 1
@__func__.cleanup_tsquery_stopwords = private unnamed_addr constant [26 x i8] c"cleanup_tsquery_stopwords\00", align 1

; Function Attrs: nounwind uwtable
define internal ptr @plaintree(ptr noundef %0, ptr noundef %1) #0 {
  %3 = alloca ptr, align 8
  %4 = alloca ptr, align 8
  %5 = alloca %struct.PLAINTREE, align 8
  store ptr %0, ptr %3, align 8
  store ptr %1, ptr %4, align 8
  call void @llvm.lifetime.start.p0(i64 16, ptr %5) #5
  %6 = getelementptr inbounds nuw %struct.PLAINTREE, ptr %5, i32 0, i32 2
  store i32 0, ptr %6, align 4
  %7 = getelementptr inbounds nuw %struct.PLAINTREE, ptr %5, i32 0, i32 1
  store i32 16, ptr %7, align 8
  %8 = load ptr, ptr %3, align 8
  %9 = icmp ne ptr %8, null
  br i1 %9, label %10, label %32

10:                                               ; preds = %2
  %11 = load ptr, ptr %3, align 8
  %12 = getelementptr inbounds nuw %struct.NODE, ptr %11, i32 0, i32 2
  %13 = load ptr, ptr %12, align 8
  %14 = load i8, ptr %13, align 4
  %15 = sext i8 %14 to i32
  %16 = icmp eq i32 %15, 1
  br i1 %16, label %24, label %17

17:                                               ; preds = %10
  %18 = load ptr, ptr %3, align 8
  %19 = getelementptr inbounds nuw %struct.NODE, ptr %18, i32 0, i32 2
  %20 = load ptr, ptr %19, align 8
  %21 = load i8, ptr %20, align 4
  %22 = sext i8 %21 to i32
  %23 = icmp eq i32 %22, 2
  br i1 %23, label %24, label %32

24:                                               ; preds = %17, %10
  %25 = getelementptr inbounds nuw %struct.PLAINTREE, ptr %5, i32 0, i32 1
  %26 = load i32, ptr %25, align 8
  %27 = sext i32 %26 to i64
  %28 = mul i64 %27, 12
  %29 = call ptr @palloc(i64 noundef %28)
  %30 = getelementptr inbounds nuw %struct.PLAINTREE, ptr %5, i32 0, i32 0
  store ptr %29, ptr %30, align 8
  %31 = load ptr, ptr %3, align 8
  call void @plainnode(ptr noundef %5, ptr noundef %31)
  br label %34

32:                                               ; preds = %17, %2
  %33 = getelementptr inbounds nuw %struct.PLAINTREE, ptr %5, i32 0, i32 0
  store ptr null, ptr %33, align 8
  br label %34

34:                                               ; preds = %32, %24
  %35 = getelementptr inbounds nuw %struct.PLAINTREE, ptr %5, i32 0, i32 2
  %36 = load i32, ptr %35, align 4
  %37 = load ptr, ptr %4, align 8
  store i32 %36, ptr %37, align 4
  %38 = getelementptr inbounds nuw %struct.PLAINTREE, ptr %5, i32 0, i32 0
  %39 = load ptr, ptr %38, align 8
  call void @llvm.lifetime.end.p0(i64 16, ptr %5) #5
  ret ptr %39
}

; Function Attrs: nounwind uwtable
define dso_local ptr @cleanup_tsquery_stopwords(ptr noundef %0, i1 noundef zeroext %1) #0 {
  %3 = alloca ptr, align 8
  %4 = alloca ptr, align 8
  %5 = alloca i8, align 1
  %6 = alloca i32, align 4
  %7 = alloca i32, align 4
  %8 = alloca i32, align 4
  %9 = alloca i32, align 4
  %10 = alloca ptr, align 8
  %11 = alloca i32, align 4
  %12 = alloca i32, align 4
  %13 = alloca ptr, align 8
  %14 = alloca ptr, align 8
  %15 = alloca ptr, align 8
  %16 = alloca i32, align 4
  %17 = alloca ptr, align 8
  store ptr %0, ptr %4, align 8
  %18 = zext i1 %1 to i8
  store i8 %18, ptr %5, align 1
  call void @llvm.lifetime.start.p0(i64 4, ptr %6) #5
  call void @llvm.lifetime.start.p0(i64 4, ptr %7) #5
  call void @llvm.lifetime.start.p0(i64 4, ptr %8) #5
  call void @llvm.lifetime.start.p0(i64 4, ptr %9) #5
  call void @llvm.lifetime.start.p0(i64 8, ptr %10) #5
  call void @llvm.lifetime.start.p0(i64 4, ptr %11) #5
  call void @llvm.lifetime.start.p0(i64 4, ptr %12) #5
  call void @llvm.lifetime.start.p0(i64 8, ptr %13) #5
  call void @llvm.lifetime.start.p0(i64 8, ptr %14) #5
  call void @llvm.lifetime.start.p0(i64 8, ptr %15) #5
  %19 = load ptr, ptr %4, align 8
  %20 = getelementptr inbounds nuw %struct.TSQueryData, ptr %19, i32 0, i32 1
  %21 = load i32, ptr %20, align 4
  %22 = icmp eq i32 %21, 0
  br i1 %22, label %23, label %25

23:                                               ; preds = %2
  %24 = load ptr, ptr %4, align 8
  store ptr %24, ptr %3, align 8
  store i32 1, ptr %16, align 4
  br label %173

25:                                               ; preds = %2
  %26 = load ptr, ptr %4, align 8
  %27 = getelementptr inbounds nuw i8, ptr %26, i64 8
  %28 = call ptr @maketree(ptr noundef %27)
  %29 = call ptr @clean_stopword_intree(ptr noundef %28, ptr noundef %11, ptr noundef %12)
  store ptr %29, ptr %10, align 8
  %30 = load ptr, ptr %10, align 8
  %31 = icmp eq ptr %30, null
  br i1 %31, label %32, label %53

32:                                               ; preds = %25
  %33 = load i8, ptr %5, align 1, !range !4, !noundef !5
  %34 = trunc i8 %33 to i1
  br i1 %34, label %35, label %46

35:                                               ; preds = %32
  br label %36

36:                                               ; preds = %35
  br i1 false, label %37, label %39

37:                                               ; preds = %36
  %38 = call zeroext i1 @errstart_cold(i32 noundef 18, ptr noundef null) #6
  br i1 %38, label %41, label %43

39:                                               ; preds = %36
  %40 = call zeroext i1 @errstart(i32 noundef 18, ptr noundef null)
  br i1 %40, label %41, label %43

41:                                               ; preds = %39, %37
  %42 = call i32 (ptr, ...) @errmsg(ptr noundef @.str)
  call void @errfinish(ptr noundef @.str.1, i32 noundef 409, ptr noundef @__func__.cleanup_tsquery_stopwords)
  br label %43

43:                                               ; preds = %41, %39, %37
  br label %44

44:                                               ; preds = %43
  br label %45

45:                                               ; preds = %44
  br label %46

46:                                               ; preds = %45, %32
  %47 = call ptr @palloc(i64 noundef 8)
  store ptr %47, ptr %13, align 8
  %48 = load ptr, ptr %13, align 8
  %49 = getelementptr inbounds nuw %struct.TSQueryData, ptr %48, i32 0, i32 1
  store i32 0, ptr %49, align 4
  %50 = load ptr, ptr %13, align 8
  %51 = getelementptr inbounds nuw %struct.anon, ptr %50, i32 0, i32 0
  store i32 32, ptr %51, align 4
  %52 = load ptr, ptr %13, align 8
  store ptr %52, ptr %3, align 8
  store i32 1, ptr %16, align 4
  br label %173

53:                                               ; preds = %25
  %54 = load ptr, ptr %10, align 8
  %55 = call i32 @calcstrlen(ptr noundef %54)
  store i32 %55, ptr %7, align 4
  %56 = load ptr, ptr %10, align 8
  %57 = call ptr @plaintree(ptr noundef %56, ptr noundef %6)
  store ptr %57, ptr %14, align 8
  %58 = load i32, ptr %6, align 4
  %59 = sext i32 %58 to i64
  %60 = mul i64 %59, 12
  %61 = add i64 8, %60
  %62 = load i32, ptr %7, align 4
  %63 = sext i32 %62 to i64
  %64 = add i64 %61, %63
  %65 = trunc i64 %64 to i32
  store i32 %65, ptr %8, align 4
  %66 = load i32, ptr %8, align 4
  %67 = sext i32 %66 to i64
  %68 = call ptr @palloc(i64 noundef %67)
  store ptr %68, ptr %13, align 8
  %69 = load i32, ptr %8, align 4
  %70 = shl i32 %69, 2
  %71 = load ptr, ptr %13, align 8
  %72 = getelementptr inbounds nuw %struct.anon, ptr %71, i32 0, i32 0
  store i32 %70, ptr %72, align 4
  %73 = load i32, ptr %6, align 4
  %74 = load ptr, ptr %13, align 8
  %75 = getelementptr inbounds nuw %struct.TSQueryData, ptr %74, i32 0, i32 1
  store i32 %73, ptr %75, align 4
  %76 = load ptr, ptr %13, align 8
  %77 = getelementptr inbounds nuw i8, ptr %76, i64 8
  %78 = load ptr, ptr %14, align 8
  %79 = load i32, ptr %6, align 4
  %80 = sext i32 %79 to i64
  %81 = mul i64 %80, 12
  call void @llvm.memcpy.p0.p0.i64(ptr align 4 %77, ptr align 4 %78, i64 %81, i1 false)
  %82 = load ptr, ptr %13, align 8
  %83 = getelementptr inbounds nuw i8, ptr %82, i64 8
  store ptr %83, ptr %14, align 8
  %84 = load ptr, ptr %13, align 8
  %85 = getelementptr inbounds nuw i8, ptr %84, i64 8
  %86 = load ptr, ptr %13, align 8
  %87 = getelementptr inbounds nuw %struct.TSQueryData, ptr %86, i32 0, i32 1
  %88 = load i32, ptr %87, align 4
  %89 = sext i32 %88 to i64
  %90 = mul i64 %89, 12
  %91 = getelementptr inbounds nuw i8, ptr %85, i64 %90
  store ptr %91, ptr %15, align 8
  store i32 0, ptr %9, align 4
  br label %92

92:                                               ; preds = %168, %53
  %93 = load i32, ptr %9, align 4
  %94 = load ptr, ptr %13, align 8
  %95 = getelementptr inbounds nuw %struct.TSQueryData, ptr %94, i32 0, i32 1
  %96 = load i32, ptr %95, align 4
  %97 = icmp slt i32 %93, %96
  br i1 %97, label %98, label %171

98:                                               ; preds = %92
  call void @llvm.lifetime.start.p0(i64 8, ptr %17) #5
  %99 = load ptr, ptr %14, align 8
  %100 = load i32, ptr %9, align 4
  %101 = sext i32 %100 to i64
  %102 = getelementptr inbounds %union.QueryItem, ptr %99, i64 %101
  store ptr %102, ptr %17, align 8
  %103 = load ptr, ptr %17, align 8
  %104 = getelementptr inbounds nuw %struct.QueryOperand, ptr %103, i32 0, i32 0
  %105 = load i8, ptr %104, align 4
  %106 = sext i8 %105 to i32
  %107 = icmp ne i32 %106, 1
  br i1 %107, label %108, label %109

108:                                              ; preds = %98
  store i32 6, ptr %16, align 4
  br label %165

109:                                              ; preds = %98
  %110 = load ptr, ptr %15, align 8
  %111 = load ptr, ptr %4, align 8
  %112 = getelementptr inbounds nuw i8, ptr %111, i64 8
  %113 = load ptr, ptr %4, align 8
  %114 = getelementptr inbounds nuw %struct.TSQueryData, ptr %113, i32 0, i32 1
  %115 = load i32, ptr %114, align 4
  %116 = sext i32 %115 to i64
  %117 = mul i64 %116, 12
  %118 = getelementptr inbounds nuw i8, ptr %112, i64 %117
  %119 = load ptr, ptr %17, align 8
  %120 = getelementptr inbounds nuw %struct.QueryOperand, ptr %119, i32 0, i32 4
  %121 = load i32, ptr %120, align 4
  %122 = lshr i32 %121, 12
  %123 = sext i32 %122 to i64
  %124 = getelementptr inbounds i8, ptr %118, i64 %123
  %125 = load ptr, ptr %17, align 8
  %126 = getelementptr inbounds nuw %struct.QueryOperand, ptr %125, i32 0, i32 4
  %127 = load i32, ptr %126, align 4
  %128 = and i32 %127, 4095
  %129 = zext i32 %128 to i64
  call void @llvm.memcpy.p0.p0.i64(ptr align 1 %110, ptr align 1 %124, i64 %129, i1 false)
  %130 = load ptr, ptr %15, align 8
  %131 = load ptr, ptr %17, align 8
  %132 = getelementptr inbounds nuw %struct.QueryOperand, ptr %131, i32 0, i32 4
  %133 = load i32, ptr %132, align 4
  %134 = and i32 %133, 4095
  %135 = zext i32 %134 to i64
  %136 = getelementptr inbounds nuw i8, ptr %130, i64 %135
  store i8 0, ptr %136, align 1
  %137 = load ptr, ptr %15, align 8
  %138 = load ptr, ptr %13, align 8
  %139 = getelementptr inbounds nuw i8, ptr %138, i64 8
  %140 = load ptr, ptr %13, align 8
  %141 = getelementptr inbounds nuw %struct.TSQueryData, ptr %140, i32 0, i32 1
  %142 = load i32, ptr %141, align 4
  %143 = sext i32 %142 to i64
  %144 = mul i64 %143, 12
  %145 = getelementptr inbounds nuw i8, ptr %139, i64 %144
  %146 = ptrtoint ptr %137 to i64
  %147 = ptrtoint ptr %145 to i64
  %148 = sub i64 %146, %147
  %149 = trunc i64 %148 to i32
  %150 = load ptr, ptr %17, align 8
  %151 = getelementptr inbounds nuw %struct.QueryOperand, ptr %150, i32 0, i32 4
  %152 = load i32, ptr %151, align 4
  %153 = and i32 %149, 1048575
  %154 = shl i32 %153, 12
  %155 = and i32 %152, 4095
  %156 = or i32 %155, %154
  store i32 %156, ptr %151, align 4
  %157 = load ptr, ptr %17, align 8
  %158 = getelementptr inbounds nuw %struct.QueryOperand, ptr %157, i32 0, i32 4
  %159 = load i32, ptr %158, align 4
  %160 = and i32 %159, 4095
  %161 = add i32 %160, 1
  %162 = load ptr, ptr %15, align 8
  %163 = sext i32 %161 to i64
  %164 = getelementptr inbounds i8, ptr %162, i64 %163
  store ptr %164, ptr %15, align 8
  store i32 0, ptr %16, align 4
  br label %165

165:                                              ; preds = %109, %108
  call void @llvm.lifetime.end.p0(i64 8, ptr %17) #5
  %166 = load i32, ptr %16, align 4
  switch i32 %166, label %175 [
    i32 0, label %167
    i32 6, label %168
  ]

167:                                              ; preds = %165
  br label %168

168:                                              ; preds = %167, %165
  %169 = load i32, ptr %9, align 4
  %170 = add i32 %169, 1
  store i32 %170, ptr %9, align 4
  br label %92, !llvm.loop !6

171:                                              ; preds = %92
  %172 = load ptr, ptr %13, align 8
  store ptr %172, ptr %3, align 8
  store i32 1, ptr %16, align 4
  br label %173

173:                                              ; preds = %171, %46, %23
  call void @llvm.lifetime.end.p0(i64 8, ptr %15) #5
  call void @llvm.lifetime.end.p0(i64 8, ptr %14) #5
  call void @llvm.lifetime.end.p0(i64 8, ptr %13) #5
  call void @llvm.lifetime.end.p0(i64 4, ptr %12) #5
  call void @llvm.lifetime.end.p0(i64 4, ptr %11) #5
  call void @llvm.lifetime.end.p0(i64 8, ptr %10) #5
  call void @llvm.lifetime.end.p0(i64 4, ptr %9) #5
  call void @llvm.lifetime.end.p0(i64 4, ptr %8) #5
  call void @llvm.lifetime.end.p0(i64 4, ptr %7) #5
  call void @llvm.lifetime.end.p0(i64 4, ptr %6) #5
  %174 = load ptr, ptr %3, align 8
  ret ptr %174

175:                                              ; preds = %165
  unreachable
}