; Function Attrs: nounwind uwtable
define dso_local noundef ptr @cleanup_tsquery_stopwords(ptr noundef %0, i1 noundef zeroext %1) local_unnamed_addr #0 {
  %3 = alloca %struct.PLAINTREE, align 8
  %4 = alloca i32, align 4
  %5 = alloca i32, align 4
  call void @llvm.lifetime.start.p0(i64 4, ptr nonnull %4) #7
  call void @llvm.lifetime.start.p0(i64 4, ptr nonnull %5) #7
  %6 = getelementptr inbounds nuw i8, ptr %0, i64 4
  %7 = load i32, ptr %6, align 4
  %8 = icmp eq i32 %7, 0
  br i1 %8, label %.loopexit, label %9

9:                                                ; preds = %2
  %10 = getelementptr inbounds nuw i8, ptr %0, i64 8
  %11 = tail call fastcc ptr @maketree(ptr noundef nonnull %10)
  %12 = call fastcc ptr @clean_stopword_intree(ptr noundef %11, ptr noundef %4, ptr noundef %5)
  %13 = icmp eq ptr %12, null
  br i1 %13, label %14, label %22

14:                                               ; preds = %9
  br i1 %1, label %15, label %19

15:                                               ; preds = %14
  %16 = tail call zeroext i1 @errstart(i32 noundef 18, ptr noundef null) #7
  br i1 %16, label %17, label %19

17:                                               ; preds = %15
  %18 = tail call i32 (ptr, ...) @errmsg(ptr noundef nonnull @.str) #7
  tail call void @errfinish(ptr noundef nonnull @.str.1, i32 noundef 409, ptr noundef nonnull @__func__.cleanup_tsquery_stopwords) #7
  br label %19

19:                                               ; preds = %15, %17, %14
  %20 = tail call ptr @palloc(i64 noundef 8) #7
  %21 = getelementptr inbounds nuw i8, ptr %20, i64 4
  store i32 0, ptr %21, align 4
  store i32 32, ptr %20, align 4
  br label %.loopexit

22:                                               ; preds = %9
  %23 = tail call fastcc i32 @calcstrlen(ptr noundef nonnull %12)
  call void @llvm.lifetime.start.p0(i64 16, ptr nonnull %3) #7
  %24 = getelementptr inbounds nuw i8, ptr %3, i64 12
  store i32 0, ptr %24, align 4
  %25 = getelementptr inbounds nuw i8, ptr %3, i64 8
  store i32 16, ptr %25, align 8
  %26 = getelementptr inbounds nuw i8, ptr %12, i64 16
  %27 = load ptr, ptr %26, align 8
  %28 = load i8, ptr %27, align 4
  %.off.i = add i8 %28, -1
  %switch.i = icmp ult i8 %.off.i, 2
  br i1 %switch.i, label %29, label %plaintree.exit

29:                                               ; preds = %22
  %30 = tail call ptr @palloc(i64 noundef 192) #7
  store ptr %30, ptr %3, align 8
  call fastcc void @plainnode(ptr noundef %3, ptr noundef nonnull %12)
  %.pre.i = load i32, ptr %24, align 4
  %.pre6.i = load ptr, ptr %3, align 8
  br label %plaintree.exit

plaintree.exit:                                   ; preds = %22, %29
  %31 = phi ptr [ %.pre6.i, %29 ], [ null, %22 ]
  %32 = phi i32 [ %.pre.i, %29 ], [ 0, %22 ]
  call void @llvm.lifetime.end.p0(i64 16, ptr nonnull %3) #7
  %33 = mul i32 %32, 12
  %34 = add i32 %23, 8
  %35 = add i32 %34, %33
  %36 = sext i32 %35 to i64
  %37 = call ptr @palloc(i64 noundef %36) #7
  %38 = shl i32 %35, 2
  store i32 %38, ptr %37, align 4
  %39 = getelementptr inbounds nuw i8, ptr %37, i64 4
  store i32 %32, ptr %39, align 4
  %40 = getelementptr inbounds nuw i8, ptr %37, i64 8
  %41 = sext i32 %32 to i64
  %42 = mul nsw i64 %41, 12
  call void @llvm.memcpy.p0.p0.i64(ptr nonnull align 4 %40, ptr align 4 %31, i64 %42, i1 false)
  %43 = icmp sgt i32 %32, 0
  br i1 %43, label %.lr.ph.preheader, label %.loopexit

.lr.ph.preheader:                                 ; preds = %plaintree.exit
  %44 = getelementptr inbounds nuw i8, ptr %40, i64 %42
  br label %.lr.ph

.lr.ph:                                           ; preds = %.lr.ph.preheader, %79
  %45 = phi i32 [ %32, %.lr.ph.preheader ], [ %80, %79 ]
  %indvars.iv = phi i64 [ 0, %.lr.ph.preheader ], [ %indvars.iv.next, %79 ]
  %.04045 = phi ptr [ %44, %.lr.ph.preheader ], [ %.1, %79 ]
  %46 = getelementptr inbounds nuw %union.QueryItem, ptr %40, i64 %indvars.iv
  %47 = load i8, ptr %46, align 4
  %.not = icmp eq i8 %47, 1
  br i1 %.not, label %48, label %.lr.ph._crit_edge

.lr.ph._crit_edge:                                ; preds = %.lr.ph
  %.pre = sext i32 %45 to i64
  br label %79

48:                                               ; preds = %.lr.ph
  %49 = load i32, ptr %6, align 4
  %50 = sext i32 %49 to i64
  %51 = mul nsw i64 %50, 12
  %52 = getelementptr inbounds nuw i8, ptr %10, i64 %51
  %53 = getelementptr inbounds nuw i8, ptr %46, i64 8
  %54 = load i32, ptr %53, align 4
  %55 = lshr i32 %54, 12
  %56 = zext nneg i32 %55 to i64
  %57 = getelementptr inbounds nuw i8, ptr %52, i64 %56
  %58 = and i32 %54, 4095
  %59 = zext nneg i32 %58 to i64
  call void @llvm.memcpy.p0.p0.i64(ptr align 1 %.04045, ptr nonnull align 1 %57, i64 %59, i1 false)
  %60 = load i32, ptr %53, align 4
  %61 = and i32 %60, 4095
  %62 = zext nneg i32 %61 to i64
  %63 = getelementptr inbounds nuw i8, ptr %.04045, i64 %62
  store i8 0, ptr %63, align 1
  %64 = load i32, ptr %39, align 4
  %65 = sext i32 %64 to i64
  %66 = mul nsw i64 %65, 12
  %67 = getelementptr inbounds nuw i8, ptr %40, i64 %66
  %68 = ptrtoint ptr %.04045 to i64
  %69 = ptrtoint ptr %67 to i64
  %70 = sub i64 %68, %69
  %71 = trunc i64 %70 to i32
  %72 = load i32, ptr %53, align 4
  %73 = shl i32 %71, 12
  %74 = and i32 %72, 4095
  %75 = or disjoint i32 %73, %74
  store i32 %75, ptr %53, align 4
  %76 = zext nneg i32 %74 to i64
  %77 = getelementptr inbounds nuw i8, ptr %.04045, i64 %76
  %78 = getelementptr inbounds nuw i8, ptr %77, i64 1
  br label %79

79:                                               ; preds = %.lr.ph._crit_edge, %48
  %.pre-phi = phi i64 [ %.pre, %.lr.ph._crit_edge ], [ %65, %48 ]
  %80 = phi i32 [ %45, %.lr.ph._crit_edge ], [ %64, %48 ]
  %.1 = phi ptr [ %.04045, %.lr.ph._crit_edge ], [ %78, %48 ]
  %indvars.iv.next = add nuw nsw i64 %indvars.iv, 1
  %81 = icmp slt i64 %indvars.iv.next, %.pre-phi
  br i1 %81, label %.lr.ph, label %.loopexit, !llvm.loop !4

.loopexit:                                        ; preds = %79, %plaintree.exit, %2, %19
  %.0 = phi ptr [ %20, %19 ], [ %0, %2 ], [ %37, %plaintree.exit ], [ %37, %79 ]
  call void @llvm.lifetime.end.p0(i64 4, ptr nonnull %5) #7
  call void @llvm.lifetime.end.p0(i64 4, ptr nonnull %4) #7
  ret ptr %.0
}